; Function Attrs: null_pointer_is_valid sspstrong uwtable
define internal i32 @netdfs_dissect_dfs_FlushFtTable_request(ptr noundef %0, i32 noundef %1, ptr noundef %2, ptr noundef %3, ptr noundef initializes((72, 80)) %4, ptr noundef %5) #0 {
  %7 = alloca ptr, align 8
  %8 = alloca ptr, align 8
  %9 = getelementptr inbounds nuw i8, ptr %4, i64 72
  store ptr @.str.329, ptr %9, align 8
  call void @llvm.lifetime.start.p0(i64 8, ptr nonnull %8) #4
  %10 = load i32, ptr @hf_netdfs_dfs_FlushFtTable_servername, align 4
  %11 = call i32 @dissect_ndr_cvstring(ptr noundef %0, i32 noundef %1, ptr noundef %2, ptr noundef %3, ptr noundef %4, ptr noundef %5, i32 noundef 2, i32 noundef %10, i1 noundef zeroext false, ptr noundef nonnull %8)
  %12 = load ptr, ptr %8, align 8
  call void (ptr, ptr, ...) @proto_item_append_text(ptr noundef %3, ptr noundef nonnull @.str.261, ptr noundef %12)
  call void @llvm.lifetime.end.p0(i64 8, ptr nonnull %8) #4
  %13 = call i32 @dissect_deferred_pointers(ptr noundef %2, ptr noundef %0, i32 noundef %11, ptr noundef %4, ptr noundef %5)
  call void @llvm.lifetime.start.p0(i64 8, ptr nonnull %7) #4
  %14 = load i32, ptr @hf_netdfs_dfs_FlushFtTable_rootshare, align 4
  %15 = call i32 @dissect_ndr_cvstring(ptr noundef %0, i32 noundef %13, ptr noundef %2, ptr noundef %3, ptr noundef %4, ptr noundef %5, i32 noundef 2, i32 noundef %14, i1 noundef zeroext false, ptr noundef nonnull %7)
  %16 = load ptr, ptr %7, align 8
  call void (ptr, ptr, ...) @proto_item_append_text(ptr noundef %3, ptr noundef nonnull @.str.261, ptr noundef %16)
  call void @llvm.lifetime.end.p0(i64 8, ptr nonnull %7) #4
  %17 = call i32 @dissect_deferred_pointers(ptr noundef %2, ptr noundef %0, i32 noundef %15, ptr noundef %4, ptr noundef %5)
  ret i32 %17
}